target datalayout = "e-m:e-p270:32:32-p271:32:32-p272:64:64-i64:64-i128:128-f80:128-n8:16:32:64-S128"
target triple = "x86_64-pc-linux-gnu"

; Function Attrs: nounwind uwtable
define i32 @cl_verify_signature_hash_x509(ptr noundef %0, ptr noundef %1, ptr noundef %2, i32 noundef %3, ptr noundef %4) #0 {
  %6 = alloca i32, align 4
  %7 = alloca ptr, align 8
  %8 = alloca ptr, align 8
  %9 = alloca ptr, align 8
  %10 = alloca i32, align 4
  %11 = alloca ptr, align 8
  %12 = alloca ptr, align 8
  %13 = alloca i32, align 4
  %14 = alloca i32, align 4
  store ptr %0, ptr %7, align 8, !tbaa !26
  store ptr %1, ptr %8, align 8, !tbaa !3
  store ptr %2, ptr %9, align 8, !tbaa !3
  store i32 %3, ptr %10, align 4, !tbaa !13
  store ptr %4, ptr %11, align 8, !tbaa !3
  call void @llvm.lifetime.start.p0(i64 8, ptr %12) #8
  call void @llvm.lifetime.start.p0(i64 4, ptr %13) #8
  %15 = load ptr, ptr %7, align 8, !tbaa !26
  %16 = call ptr @X509_get_pubkey(ptr noundef %15)
  store ptr %16, ptr %12, align 8, !tbaa !24
  %17 = load ptr, ptr %12, align 8, !tbaa !24
  %18 = icmp ne ptr %17, null
  br i1 %18, label %20, label %19

19:                                               ; preds = %5
  store i32 -1, ptr %6, align 4
  store i32 1, ptr %14, align 4
  br label %29

20:                                               ; preds = %5
  %21 = load ptr, ptr %12, align 8, !tbaa !24
  %22 = load ptr, ptr %8, align 8, !tbaa !3
  %23 = load ptr, ptr %9, align 8, !tbaa !3
  %24 = load i32, ptr %10, align 4, !tbaa !13
  %25 = load ptr, ptr %11, align 8, !tbaa !3
  %26 = call i32 @cl_verify_signature_hash(ptr noundef %21, ptr noundef %22, ptr noundef %23, i32 noundef %24, ptr noundef %25)
  store i32 %26, ptr %13, align 4, !tbaa !13
  %27 = load ptr, ptr %12, align 8, !tbaa !24
  call void @EVP_PKEY_free(ptr noundef %27)
  %28 = load i32, ptr %13, align 4, !tbaa !13
  store i32 %28, ptr %6, align 4
  store i32 1, ptr %14, align 4
  br label %29

29:                                               ; preds = %20, %19
  call void @llvm.lifetime.end.p0(i64 4, ptr %13) #8
  call void @llvm.lifetime.end.p0(i64 8, ptr %12) #8
  %30 = load i32, ptr %6, align 4
  ret i32 %30
}