; Function Attrs: nounwind uwtable
define range(i32 -1, 1) i32 @cl_verify_signature_hash_x509(ptr noundef %0, ptr noundef %1, ptr noundef %2, i32 noundef %3, ptr noundef %4) local_unnamed_addr #1 {
  %6 = tail call ptr @X509_get_pubkey(ptr noundef %0) #12
  %.not = icmp eq ptr %6, null
  br i1 %.not, label %9, label %7

7:                                                ; preds = %5
  %8 = tail call i32 @cl_verify_signature_hash(ptr noundef nonnull %6, ptr noundef %1, ptr noundef %2, i32 noundef %3, ptr noundef %4)
  tail call void @EVP_PKEY_free(ptr noundef nonnull %6) #12
  br label %9

9:                                                ; preds = %5, %7
  %.0 = phi i32 [ %8, %7 ], [ -1, %5 ]
  ret i32 %.0
}